target datalayout = "e-m:e-p270:32:32-p271:32:32-p272:64:64-i64:64-i128:128-f80:128-n8:16:32:64-S128"
target triple = "x86_64-pc-linux-gnu"

%"class.pstd::span" = type { ptr, i64 }
%class.anon.7 = type { ptr, ptr }

@.str.1 = private unnamed_addr constant [45 x i8] c"Check failed: %s == %s with %s = %s, %s = %s\00", align 1
@.str.10 = private unnamed_addr constant [116 x i8] c"generated/home/dtcxzyw/WorkSpace/Projects/compilers/llvm-opt-benchmark/bench/pbrt-v4/pbrt-v4/src/pbrt/util/math.cpp\00", align 1
@.str.14 = private unnamed_addr constant [13 x i8] c"nodes.size()\00", align 1
@.str.15 = private unnamed_addr constant [9 x i8] c"f.size()\00", align 1

; Function Attrs: inlinehint mustprogress nounwind uwtable
define linkonce_odr dso_local noundef i64 @_ZN4pbrt5ClampIlimEET_S1_T0_T1_(i64 noundef %0, i32 noundef %1, i64 noundef %2) #10 comdat {
  %4 = alloca i64, align 8
  %5 = alloca i64, align 8
  %6 = alloca i32, align 4
  %7 = alloca i64, align 8
  store i64 %0, ptr %5, align 8, !tbaa !22
  store i32 %1, ptr %6, align 4, !tbaa !4
  store i64 %2, ptr %7, align 8, !tbaa !22
  %8 = load i64, ptr %5, align 8, !tbaa !22
  %9 = load i32, ptr %6, align 4, !tbaa !4
  %10 = sext i32 %9 to i64
  %11 = icmp slt i64 %8, %10
  br i1 %11, label %12, label %15

12:                                               ; preds = %3
  %13 = load i32, ptr %6, align 4, !tbaa !4
  %14 = sext i32 %13 to i64
  store i64 %14, ptr %4, align 8
  br label %23

15:                                               ; preds = %3
  %16 = load i64, ptr %5, align 8, !tbaa !22
  %17 = load i64, ptr %7, align 8, !tbaa !22
  %18 = icmp ugt i64 %16, %17
  br i1 %18, label %19, label %21

19:                                               ; preds = %15
  %20 = load i64, ptr %7, align 8, !tbaa !22
  store i64 %20, ptr %4, align 8
  br label %23

21:                                               ; preds = %15
  %22 = load i64, ptr %5, align 8, !tbaa !22
  store i64 %22, ptr %4, align 8
  br label %23

23:                                               ; preds = %21, %19, %12
  %24 = load i64, ptr %4, align 8
  ret i64 %24
}

; Function Attrs: inlinehint mustprogress nounwind uwtable
define internal noundef zeroext i1 @"_ZZN4pbrt10CatmullRomEN4pstd4spanIKfEES3_fENK3$_0clEi"(ptr noundef nonnull align 8 dereferenceable(16) %0, i32 noundef %1) #10 align 2 {
  %3 = alloca ptr, align 8
  %4 = alloca i32, align 4
  store ptr %0, ptr %3, align 8, !tbaa !146
  store i32 %1, ptr %4, align 4, !tbaa !4
  %5 = load ptr, ptr %3, align 8
  %6 = getelementptr inbounds nuw %class.anon.7, ptr %5, i32 0, i32 0
  %7 = load ptr, ptr %6, align 8, !tbaa !277
  %8 = load i32, ptr %4, align 4, !tbaa !4
  %9 = sext i32 %8 to i64
  %10 = call noundef nonnull align 4 dereferenceable(4) ptr @_ZN4pstd4spanIKfEixEm(ptr noundef nonnull align 8 dereferenceable(16) %7, i64 noundef %9)
  %11 = load float, ptr %10, align 4, !tbaa !8
  %12 = getelementptr inbounds nuw %class.anon.7, ptr %5, i32 0, i32 1
  %13 = load ptr, ptr %12, align 8, !tbaa !279
  %14 = load float, ptr %13, align 4, !tbaa !8
  %15 = fcmp ole float %11, %14
  ret i1 %15
}

; Function Attrs: mustprogress nounwind uwtable
define linkonce_odr dso_local noundef nonnull align 4 dereferenceable(4) ptr @_ZN4pstd4spanIKfEixEm(ptr noundef nonnull align 8 dereferenceable(16) %0, i64 noundef %1) #6 comdat align 2 {
  %3 = alloca ptr, align 8
  %4 = alloca i64, align 8
  store ptr %0, ptr %3, align 8, !tbaa !25
  store i64 %1, ptr %4, align 8, !tbaa !22
  %5 = load ptr, ptr %3, align 8
  br label %6

6:                                                ; preds = %2
  br label %7

7:                                                ; preds = %6
  %8 = getelementptr inbounds nuw %"class.pstd::span", ptr %5, i32 0, i32 0
  %9 = load ptr, ptr %8, align 8, !tbaa !37
  %10 = load i64, ptr %4, align 8, !tbaa !22
  %11 = getelementptr inbounds nuw float, ptr %9, i64 %10
  ret ptr %11
}

; Function Attrs: inlinehint mustprogress uwtable
define internal noundef i64 @"_ZN4pbrt12FindIntervalIZNS_10CatmullRomEN4pstd4spanIKfEES4_fE3$_0EEmmRKT_"(i64 noundef %0, ptr noundef nonnull align 8 dereferenceable(16) %1) #7 {
  %3 = alloca i64, align 8
  %4 = alloca ptr, align 8
  %5 = alloca i64, align 8
  %6 = alloca i64, align 8
  %7 = alloca i64, align 8
  %8 = alloca i64, align 8
  %9 = alloca i8, align 1
  store i64 %0, ptr %3, align 8, !tbaa !22
  store ptr %1, ptr %4, align 8, !tbaa !146
  call void @llvm.lifetime.start.p0(i64 8, ptr %5) #3
  %10 = load i64, ptr %3, align 8, !tbaa !22
  %11 = sub nsw i64 %10, 2
  store i64 %11, ptr %5, align 8, !tbaa !22
  call void @llvm.lifetime.start.p0(i64 8, ptr %6) #3
  store i64 1, ptr %6, align 8, !tbaa !22
  br label %12

12:                                               ; preds = %44, %2
  %13 = load i64, ptr %5, align 8, !tbaa !22
  %14 = icmp sgt i64 %13, 0
  br i1 %14, label %15, label %46

15:                                               ; preds = %12
  call void @llvm.lifetime.start.p0(i64 8, ptr %7) #3
  %16 = load i64, ptr %5, align 8, !tbaa !22
  %17 = lshr i64 %16, 1
  store i64 %17, ptr %7, align 8, !tbaa !22
  call void @llvm.lifetime.start.p0(i64 8, ptr %8) #3
  %18 = load i64, ptr %6, align 8, !tbaa !22
  %19 = load i64, ptr %7, align 8, !tbaa !22
  %20 = add i64 %18, %19
  store i64 %20, ptr %8, align 8, !tbaa !22
  call void @llvm.lifetime.start.p0(i64 1, ptr %9) #3
  %21 = load ptr, ptr %4, align 8, !tbaa !146
  %22 = load i64, ptr %8, align 8, !tbaa !22
  %23 = trunc i64 %22 to i32
  %24 = call noundef zeroext i1 @"_ZZN4pbrt10CatmullRomEN4pstd4spanIKfEES3_fENK3$_0clEi"(ptr noundef nonnull align 8 dereferenceable(16) %21, i32 noundef %23)
  %25 = zext i1 %24 to i8
  store i8 %25, ptr %9, align 1, !tbaa !156
  %26 = load i8, ptr %9, align 1, !tbaa !156, !range !157, !noundef !158
  %27 = trunc i8 %26 to i1
  br i1 %27, label %28, label %31

28:                                               ; preds = %15
  %29 = load i64, ptr %8, align 8, !tbaa !22
  %30 = add i64 %29, 1
  br label %33

31:                                               ; preds = %15
  %32 = load i64, ptr %6, align 8, !tbaa !22
  br label %33

33:                                               ; preds = %31, %28
  %34 = phi i64 [ %30, %28 ], [ %32, %31 ]
  store i64 %34, ptr %6, align 8, !tbaa !22
  %35 = load i8, ptr %9, align 1, !tbaa !156, !range !157, !noundef !158
  %36 = trunc i8 %35 to i1
  br i1 %36, label %37, label %42

37:                                               ; preds = %33
  %38 = load i64, ptr %5, align 8, !tbaa !22
  %39 = load i64, ptr %7, align 8, !tbaa !22
  %40 = add i64 %39, 1
  %41 = sub i64 %38, %40
  br label %44

42:                                               ; preds = %33
  %43 = load i64, ptr %7, align 8, !tbaa !22
  br label %44

44:                                               ; preds = %42, %37
  %45 = phi i64 [ %41, %37 ], [ %43, %42 ]
  store i64 %45, ptr %5, align 8, !tbaa !22
  call void @llvm.lifetime.end.p0(i64 1, ptr %9) #3
  call void @llvm.lifetime.end.p0(i64 8, ptr %8) #3
  call void @llvm.lifetime.end.p0(i64 8, ptr %7) #3
  br label %12, !llvm.loop !160

46:                                               ; preds = %12
  %47 = load i64, ptr %6, align 8, !tbaa !22
  %48 = sub nsw i64 %47, 1
  %49 = load i64, ptr %3, align 8, !tbaa !22
  %50 = sub i64 %49, 2
  %51 = call noundef i64 @_ZN4pbrt5ClampIlimEET_S1_T0_T1_(i64 noundef %48, i32 noundef 0, i64 noundef %50)
  call void @llvm.lifetime.end.p0(i64 8, ptr %6) #3
  call void @llvm.lifetime.end.p0(i64 8, ptr %5) #3
  ret i64 %51
}

; Function Attrs: mustprogress nounwind uwtable
define linkonce_odr dso_local noundef float @_ZNK4pstd4spanIKfE4backEv(ptr noundef nonnull align 8 dereferenceable(16) %0) #6 comdat align 2 {
  %2 = alloca ptr, align 8
  store ptr %0, ptr %2, align 8, !tbaa !25
  %3 = load ptr, ptr %2, align 8
  %4 = getelementptr inbounds nuw %"class.pstd::span", ptr %3, i32 0, i32 0
  %5 = load ptr, ptr %4, align 8, !tbaa !37
  %6 = getelementptr inbounds nuw %"class.pstd::span", ptr %3, i32 0, i32 1
  %7 = load i64, ptr %6, align 8, !tbaa !27
  %8 = sub i64 %7, 1
  %9 = getelementptr inbounds nuw float, ptr %5, i64 %8
  %10 = load float, ptr %9, align 4, !tbaa !8
  ret float %10
}

; Function Attrs: mustprogress nounwind uwtable
define linkonce_odr dso_local noundef float @_ZNK4pstd4spanIKfE5frontEv(ptr noundef nonnull align 8 dereferenceable(16) %0) #6 comdat align 2 {
  %2 = alloca ptr, align 8
  store ptr %0, ptr %2, align 8, !tbaa !25
  %3 = load ptr, ptr %2, align 8
  %4 = getelementptr inbounds nuw %"class.pstd::span", ptr %3, i32 0, i32 0
  %5 = load ptr, ptr %4, align 8, !tbaa !37
  %6 = getelementptr inbounds float, ptr %5, i64 0
  %7 = load float, ptr %6, align 4, !tbaa !8
  ret float %7
}

; Function Attrs: mustprogress nounwind uwtable
define linkonce_odr dso_local noundef i64 @_ZNK4pstd4spanIKfE4sizeEv(ptr noundef nonnull align 8 dereferenceable(16) %0) #6 comdat align 2 {
  %2 = alloca ptr, align 8
  store ptr %0, ptr %2, align 8, !tbaa !25
  %3 = load ptr, ptr %2, align 8
  %4 = getelementptr inbounds nuw %"class.pstd::span", ptr %3, i32 0, i32 1
  %5 = load i64, ptr %4, align 8, !tbaa !27
  ret i64 %5
}

; Function Attrs: mustprogress uwtable
define dso_local noundef float @_ZN4pbrt10CatmullRomEN4pstd4spanIKfEES3_f(ptr %0, i64 %1, ptr %2, i64 %3, float noundef %4) #4 {
  %6 = alloca float, align 4
  %7 = alloca %"class.pstd::span", align 8
  %8 = alloca %"class.pstd::span", align 8
  %9 = alloca float, align 4
  %10 = alloca i64, align 8
  %11 = alloca i64, align 8
  %12 = alloca i32, align 4
  %13 = alloca %class.anon.7, align 8
  %14 = alloca float, align 4
  %15 = alloca float, align 4
  %16 = alloca float, align 4
  %17 = alloca float, align 4
  %18 = alloca float, align 4
  %19 = alloca float, align 4
  %20 = alloca float, align 4
  %21 = alloca float, align 4
  %22 = alloca float, align 4
  %23 = alloca float, align 4
  %24 = getelementptr inbounds nuw { ptr, i64 }, ptr %7, i32 0, i32 0
  store ptr %0, ptr %24, align 8
  %25 = getelementptr inbounds nuw { ptr, i64 }, ptr %7, i32 0, i32 1
  store i64 %1, ptr %25, align 8
  %26 = getelementptr inbounds nuw { ptr, i64 }, ptr %8, i32 0, i32 0
  store ptr %2, ptr %26, align 8
  %27 = getelementptr inbounds nuw { ptr, i64 }, ptr %8, i32 0, i32 1
  store i64 %3, ptr %27, align 8
  store float %4, ptr %9, align 4, !tbaa !8
  br label %28

28:                                               ; preds = %5
  call void @llvm.lifetime.start.p0(i64 8, ptr %10) #3
  %29 = call noundef i64 @_ZNK4pstd4spanIKfE4sizeEv(ptr noundef nonnull align 8 dereferenceable(16) %7)
  store i64 %29, ptr %10, align 8, !tbaa !22
  call void @llvm.lifetime.start.p0(i64 8, ptr %11) #3
  %30 = call noundef i64 @_ZNK4pstd4spanIKfE4sizeEv(ptr noundef nonnull align 8 dereferenceable(16) %8)
  store i64 %30, ptr %11, align 8, !tbaa !22
  %31 = load i64, ptr %10, align 8, !tbaa !22
  %32 = load i64, ptr %11, align 8, !tbaa !22
  %33 = icmp eq i64 %31, %32
  br i1 %33, label %35, label %34

34:                                               ; preds = %28
  call void @_ZN4pbrt8LogFatalIJRA13_KcRA9_S1_S3_RmS5_S6_EEEvNS_8LogLevelEPS1_iS8_DpOT_(i32 noundef 2, ptr noundef @.str.10, i32 noundef 204, ptr noundef @.str.1, ptr noundef nonnull align 1 dereferenceable(13) @.str.14, ptr noundef nonnull align 1 dereferenceable(9) @.str.15, ptr noundef nonnull align 1 dereferenceable(13) @.str.14, ptr noundef nonnull align 8 dereferenceable(8) %10, ptr noundef nonnull align 1 dereferenceable(9) @.str.15, ptr noundef nonnull align 8 dereferenceable(8) %11) #21
  unreachable

35:                                               ; preds = %28
  call void @llvm.lifetime.end.p0(i64 8, ptr %11) #3
  call void @llvm.lifetime.end.p0(i64 8, ptr %10) #3
  br label %36

36:                                               ; preds = %35
  %37 = load float, ptr %9, align 4, !tbaa !8
  %38 = call noundef float @_ZNK4pstd4spanIKfE5frontEv(ptr noundef nonnull align 8 dereferenceable(16) %7)
  %39 = fcmp oge float %37, %38
  br i1 %39, label %40, label %44

40:                                               ; preds = %36
  %41 = load float, ptr %9, align 4, !tbaa !8
  %42 = call noundef float @_ZNK4pstd4spanIKfE4backEv(ptr noundef nonnull align 8 dereferenceable(16) %7)
  %43 = fcmp ole float %41, %42
  br i1 %43, label %45, label %44

44:                                               ; preds = %40, %36
  store float 0.000000e+00, ptr %6, align 4
  br label %169

45:                                               ; preds = %40
  call void @llvm.lifetime.start.p0(i64 4, ptr %12) #3
  %46 = call noundef i64 @_ZNK4pstd4spanIKfE4sizeEv(ptr noundef nonnull align 8 dereferenceable(16) %7)
  call void @llvm.lifetime.start.p0(i64 16, ptr %13) #3
  %47 = getelementptr inbounds nuw %class.anon.7, ptr %13, i32 0, i32 0
  store ptr %7, ptr %47, align 8, !tbaa !25
  %48 = getelementptr inbounds nuw %class.anon.7, ptr %13, i32 0, i32 1
  store ptr %9, ptr %48, align 8, !tbaa !18
  %49 = call noundef i64 @"_ZN4pbrt12FindIntervalIZNS_10CatmullRomEN4pstd4spanIKfEES4_fE3$_0EEmmRKT_"(i64 noundef %46, ptr noundef nonnull align 8 dereferenceable(16) %13)
  %50 = trunc i64 %49 to i32
  call void @llvm.lifetime.end.p0(i64 16, ptr %13) #3
  store i32 %50, ptr %12, align 4, !tbaa !4
  call void @llvm.lifetime.start.p0(i64 4, ptr %14) #3
  %51 = load i32, ptr %12, align 4, !tbaa !4
  %52 = sext i32 %51 to i64
  %53 = call noundef nonnull align 4 dereferenceable(4) ptr @_ZN4pstd4spanIKfEixEm(ptr noundef nonnull align 8 dereferenceable(16) %7, i64 noundef %52)
  %54 = load float, ptr %53, align 4, !tbaa !8
  store float %54, ptr %14, align 4, !tbaa !8
  call void @llvm.lifetime.start.p0(i64 4, ptr %15) #3
  %55 = load i32, ptr %12, align 4, !tbaa !4
  %56 = add nsw i32 %55, 1
  %57 = sext i32 %56 to i64
  %58 = call noundef nonnull align 4 dereferenceable(4) ptr @_ZN4pstd4spanIKfEixEm(ptr noundef nonnull align 8 dereferenceable(16) %7, i64 noundef %57)
  %59 = load float, ptr %58, align 4, !tbaa !8
  store float %59, ptr %15, align 4, !tbaa !8
  call void @llvm.lifetime.start.p0(i64 4, ptr %16) #3
  %60 = load i32, ptr %12, align 4, !tbaa !4
  %61 = sext i32 %60 to i64
  %62 = call noundef nonnull align 4 dereferenceable(4) ptr @_ZN4pstd4spanIKfEixEm(ptr noundef nonnull align 8 dereferenceable(16) %8, i64 noundef %61)
  %63 = load float, ptr %62, align 4, !tbaa !8
  store float %63, ptr %16, align 4, !tbaa !8
  call void @llvm.lifetime.start.p0(i64 4, ptr %17) #3
  %64 = load i32, ptr %12, align 4, !tbaa !4
  %65 = add nsw i32 %64, 1
  %66 = sext i32 %65 to i64
  %67 = call noundef nonnull align 4 dereferenceable(4) ptr @_ZN4pstd4spanIKfEixEm(ptr noundef nonnull align 8 dereferenceable(16) %8, i64 noundef %66)
  %68 = load float, ptr %67, align 4, !tbaa !8
  store float %68, ptr %17, align 4, !tbaa !8
  call void @llvm.lifetime.start.p0(i64 4, ptr %18) #3
  %69 = load float, ptr %15, align 4, !tbaa !8
  %70 = load float, ptr %14, align 4, !tbaa !8
  %71 = fsub float %69, %70
  store float %71, ptr %18, align 4, !tbaa !8
  call void @llvm.lifetime.start.p0(i64 4, ptr %19) #3
  call void @llvm.lifetime.start.p0(i64 4, ptr %20) #3
  %72 = load i32, ptr %12, align 4, !tbaa !4
  %73 = icmp sgt i32 %72, 0
  br i1 %73, label %74, label %92

74:                                               ; preds = %45
  %75 = load float, ptr %18, align 4, !tbaa !8
  %76 = load float, ptr %17, align 4, !tbaa !8
  %77 = load i32, ptr %12, align 4, !tbaa !4
  %78 = sub nsw i32 %77, 1
  %79 = sext i32 %78 to i64
  %80 = call noundef nonnull align 4 dereferenceable(4) ptr @_ZN4pstd4spanIKfEixEm(ptr noundef nonnull align 8 dereferenceable(16) %8, i64 noundef %79)
  %81 = load float, ptr %80, align 4, !tbaa !8
  %82 = fsub float %76, %81
  %83 = fmul float %75, %82
  %84 = load float, ptr %15, align 4, !tbaa !8
  %85 = load i32, ptr %12, align 4, !tbaa !4
  %86 = sub nsw i32 %85, 1
  %87 = sext i32 %86 to i64
  %88 = call noundef nonnull align 4 dereferenceable(4) ptr @_ZN4pstd4spanIKfEixEm(ptr noundef nonnull align 8 dereferenceable(16) %7, i64 noundef %87)
  %89 = load float, ptr %88, align 4, !tbaa !8
  %90 = fsub float %84, %89
  %91 = fdiv float %83, %90
  store float %91, ptr %19, align 4, !tbaa !8
  br label %96

92:                                               ; preds = %45
  %93 = load float, ptr %17, align 4, !tbaa !8
  %94 = load float, ptr %16, align 4, !tbaa !8
  %95 = fsub float %93, %94
  store float %95, ptr %19, align 4, !tbaa !8
  br label %96

96:                                               ; preds = %92, %74
  %97 = load i32, ptr %12, align 4, !tbaa !4
  %98 = add nsw i32 %97, 2
  %99 = sext i32 %98 to i64
  %100 = call noundef i64 @_ZNK4pstd4spanIKfE4sizeEv(ptr noundef nonnull align 8 dereferenceable(16) %7)
  %101 = icmp ult i64 %99, %100
  br i1 %101, label %102, label %120

102:                                              ; preds = %96
  %103 = load float, ptr %18, align 4, !tbaa !8
  %104 = load i32, ptr %12, align 4, !tbaa !4
  %105 = add nsw i32 %104, 2
  %106 = sext i32 %105 to i64
  %107 = call noundef nonnull align 4 dereferenceable(4) ptr @_ZN4pstd4spanIKfEixEm(ptr noundef nonnull align 8 dereferenceable(16) %8, i64 noundef %106)
  %108 = load float, ptr %107, align 4, !tbaa !8
  %109 = load float, ptr %16, align 4, !tbaa !8
  %110 = fsub float %108, %109
  %111 = fmul float %103, %110
  %112 = load i32, ptr %12, align 4, !tbaa !4
  %113 = add nsw i32 %112, 2
  %114 = sext i32 %113 to i64
  %115 = call noundef nonnull align 4 dereferenceable(4) ptr @_ZN4pstd4spanIKfEixEm(ptr noundef nonnull align 8 dereferenceable(16) %7, i64 noundef %114)
  %116 = load float, ptr %115, align 4, !tbaa !8
  %117 = load float, ptr %14, align 4, !tbaa !8
  %118 = fsub float %116, %117
  %119 = fdiv float %111, %118
  store float %119, ptr %20, align 4, !tbaa !8
  br label %124

120:                                              ; preds = %96
  %121 = load float, ptr %17, align 4, !tbaa !8
  %122 = load float, ptr %16, align 4, !tbaa !8
  %123 = fsub float %121, %122
  store float %123, ptr %20, align 4, !tbaa !8
  br label %124

124:                                              ; preds = %120, %102
  call void @llvm.lifetime.start.p0(i64 4, ptr %21) #3
  %125 = load float, ptr %9, align 4, !tbaa !8
  %126 = load float, ptr %14, align 4, !tbaa !8
  %127 = fsub float %125, %126
  %128 = load float, ptr %15, align 4, !tbaa !8
  %129 = load float, ptr %14, align 4, !tbaa !8
  %130 = fsub float %128, %129
  %131 = fdiv float %127, %130
  store float %131, ptr %21, align 4, !tbaa !8
  call void @llvm.lifetime.start.p0(i64 4, ptr %22) #3
  %132 = load float, ptr %21, align 4, !tbaa !8
  %133 = load float, ptr %21, align 4, !tbaa !8
  %134 = fmul float %132, %133
  store float %134, ptr %22, align 4, !tbaa !8
  call void @llvm.lifetime.start.p0(i64 4, ptr %23) #3
  %135 = load float, ptr %22, align 4, !tbaa !8
  %136 = load float, ptr %21, align 4, !tbaa !8
  %137 = fmul float %135, %136
  store float %137, ptr %23, align 4, !tbaa !8
  %138 = load float, ptr %23, align 4, !tbaa !8
  %139 = fmul float 2.000000e+00, %138
  %140 = load float, ptr %22, align 4, !tbaa !8
  %141 = fmul float 3.000000e+00, %140
  %142 = fsub float %139, %141
  %143 = fadd float %142, 1.000000e+00
  %144 = load float, ptr %16, align 4, !tbaa !8
  %145 = fmul float %143, %144
  %146 = load float, ptr %23, align 4, !tbaa !8
  %147 = fmul float -2.000000e+00, %146
  %148 = load float, ptr %22, align 4, !tbaa !8
  %149 = fmul float 3.000000e+00, %148
  %150 = fadd float %147, %149
  %151 = load float, ptr %17, align 4, !tbaa !8
  %152 = fmul float %150, %151
  %153 = fadd float %145, %152
  %154 = load float, ptr %23, align 4, !tbaa !8
  %155 = load float, ptr %22, align 4, !tbaa !8
  %156 = fmul float 2.000000e+00, %155
  %157 = fsub float %154, %156
  %158 = load float, ptr %21, align 4, !tbaa !8
  %159 = fadd float %157, %158
  %160 = load float, ptr %19, align 4, !tbaa !8
  %161 = fmul float %159, %160
  %162 = fadd float %153, %161
  %163 = load float, ptr %23, align 4, !tbaa !8
  %164 = load float, ptr %22, align 4, !tbaa !8
  %165 = fsub float %163, %164
  %166 = load float, ptr %20, align 4, !tbaa !8
  %167 = fmul float %165, %166
  %168 = fadd float %162, %167
  store float %168, ptr %6, align 4
  call void @llvm.lifetime.end.p0(i64 4, ptr %23) #3
  call void @llvm.lifetime.end.p0(i64 4, ptr %22) #3
  call void @llvm.lifetime.end.p0(i64 4, ptr %21) #3
  call void @llvm.lifetime.end.p0(i64 4, ptr %20) #3
  call void @llvm.lifetime.end.p0(i64 4, ptr %19) #3
  call void @llvm.lifetime.end.p0(i64 4, ptr %18) #3
  call void @llvm.lifetime.end.p0(i64 4, ptr %17) #3
  call void @llvm.lifetime.end.p0(i64 4, ptr %16) #3
  call void @llvm.lifetime.end.p0(i64 4, ptr %15) #3
  call void @llvm.lifetime.end.p0(i64 4, ptr %14) #3
  call void @llvm.lifetime.end.p0(i64 4, ptr %12) #3
  br label %169

169:                                              ; preds = %124, %44
  %170 = load float, ptr %6, align 4
  ret float %170
}