; Function Attrs: mustprogress uwtable
define dso_local noundef float @_ZN4pbrt10CatmullRomEN4pstd4spanIKfEES3_f(ptr readonly captures(none) %0, i64 %1, ptr readonly captures(none) %2, i64 %3, float noundef %4) local_unnamed_addr #3 {
  %6 = alloca i64, align 8
  %7 = alloca i64, align 8
  call void @llvm.lifetime.start.p0(i64 8, ptr nonnull %6) #27
  store i64 %1, ptr %6, align 8, !tbaa !10
  call void @llvm.lifetime.start.p0(i64 8, ptr nonnull %7) #27
  store i64 %3, ptr %7, align 8, !tbaa !10
  %8 = icmp eq i64 %1, %3
  br i1 %8, label %10, label %9

9:                                                ; preds = %5
  call void @_ZN4pbrt8LogFatalIJRA13_KcRA9_S1_S3_RmS5_S6_EEEvNS_8LogLevelEPS1_iS8_DpOT_(i32 noundef 2, ptr noundef nonnull @.str.10, i32 noundef 204, ptr noundef nonnull @.str.1, ptr noundef nonnull align 1 dereferenceable(13) @.str.14, ptr noundef nonnull align 1 dereferenceable(9) @.str.15, ptr noundef nonnull align 1 dereferenceable(13) @.str.14, ptr noundef nonnull align 8 dereferenceable(8) %6, ptr noundef nonnull align 1 dereferenceable(9) @.str.15, ptr noundef nonnull align 8 dereferenceable(8) %7) #28
  unreachable

10:                                               ; preds = %5
  call void @llvm.lifetime.end.p0(i64 8, ptr nonnull %7) #27
  call void @llvm.lifetime.end.p0(i64 8, ptr nonnull %6) #27
  %11 = load float, ptr %0, align 4, !tbaa !4
  %12 = fcmp ult float %4, %11
  br i1 %12, label %95, label %13

13:                                               ; preds = %10
  %14 = getelementptr float, ptr %0, i64 %1
  %15 = getelementptr i8, ptr %14, i64 -4
  %16 = load float, ptr %15, align 4, !tbaa !4
  %17 = fcmp ugt float %4, %16
  br i1 %17, label %95, label %18

18:                                               ; preds = %13
  %19 = add i64 %1, -2
  %20 = icmp sgt i64 %19, 0
  br i1 %20, label %.lr.ph.i, label %"_ZN4pbrt12FindIntervalIZNS_10CatmullRomEN4pstd4spanIKfEES4_fE3$_0EEmmRKT_.exit"

.lr.ph.i:                                         ; preds = %18, %.lr.ph.i
  %.02.i = phi i64 [ %30, %.lr.ph.i ], [ %19, %18 ]
  %.0151.i = phi i64 [ %.fr.i, %.lr.ph.i ], [ 1, %18 ]
  %21 = lshr i64 %.02.i, 1
  %22 = add i64 %21, %.0151.i
  %sext.i = shl i64 %22, 32
  %23 = ashr exact i64 %sext.i, 30
  %24 = getelementptr inbounds nuw i8, ptr %0, i64 %23
  %25 = load float, ptr %24, align 4, !tbaa !4
  %26 = fcmp ole float %25, %4
  %27 = add i64 %22, 1
  %28 = select i1 %26, i64 %27, i64 %.0151.i
  %.fr.i = freeze i64 %28
  %.neg.i = xor i64 %21, -1
  %29 = add nsw i64 %.02.i, %.neg.i
  %30 = select i1 %26, i64 %29, i64 %21
  %31 = icmp sgt i64 %30, 0
  br i1 %31, label %.lr.ph.i, label %._crit_edge.i, !llvm.loop !106

._crit_edge.i:                                    ; preds = %.lr.ph.i
  %32 = add nsw i64 %.fr.i, -1
  %..i.i = tail call i64 @llvm.umin.i64(i64 %32, i64 %19)
  %.inv.i = icmp sgt i64 %.fr.i, 0
  %spec.select.i = select i1 %.inv.i, i64 %..i.i, i64 0
  br label %"_ZN4pbrt12FindIntervalIZNS_10CatmullRomEN4pstd4spanIKfEES4_fE3$_0EEmmRKT_.exit"

"_ZN4pbrt12FindIntervalIZNS_10CatmullRomEN4pstd4spanIKfEES4_fE3$_0EEmmRKT_.exit": ; preds = %18, %._crit_edge.i
  %33 = phi i64 [ 0, %18 ], [ %spec.select.i, %._crit_edge.i ]
  %34 = trunc i64 %33 to i32
  %sext = shl i64 %33, 32
  %35 = ashr exact i64 %sext, 32
  %36 = getelementptr inbounds nuw float, ptr %0, i64 %35
  %37 = load float, ptr %36, align 4, !tbaa !4
  %sext46 = add i64 %sext, 4294967296
  %38 = ashr exact i64 %sext46, 32
  %39 = getelementptr inbounds nuw float, ptr %0, i64 %38
  %40 = load float, ptr %39, align 4, !tbaa !4
  %41 = getelementptr inbounds nuw float, ptr %2, i64 %35
  %42 = load float, ptr %41, align 4, !tbaa !4
  %43 = getelementptr inbounds nuw float, ptr %2, i64 %38
  %44 = load float, ptr %43, align 4, !tbaa !4
  %45 = fsub float %40, %37
  %46 = icmp sgt i32 %34, 0
  br i1 %46, label %47, label %58

47:                                               ; preds = %"_ZN4pbrt12FindIntervalIZNS_10CatmullRomEN4pstd4spanIKfEES4_fE3$_0EEmmRKT_.exit"
  %48 = add nuw i64 %33, 4294967295
  %49 = and i64 %48, 4294967295
  %50 = getelementptr inbounds nuw float, ptr %2, i64 %49
  %51 = load float, ptr %50, align 4, !tbaa !4
  %52 = fsub float %44, %51
  %53 = fmul float %45, %52
  %54 = getelementptr inbounds nuw float, ptr %0, i64 %49
  %55 = load float, ptr %54, align 4, !tbaa !4
  %56 = fsub float %40, %55
  %57 = fdiv float %53, %56
  br label %60

58:                                               ; preds = %"_ZN4pbrt12FindIntervalIZNS_10CatmullRomEN4pstd4spanIKfEES4_fE3$_0EEmmRKT_.exit"
  %59 = fsub float %44, %42
  br label %60

60:                                               ; preds = %58, %47
  %.042 = phi float [ %57, %47 ], [ %59, %58 ]
  %sext47 = add i64 %sext, 8589934592
  %61 = ashr exact i64 %sext47, 32
  %62 = icmp ult i64 %61, %1
  br i1 %62, label %63, label %72

63:                                               ; preds = %60
  %64 = getelementptr inbounds nuw float, ptr %2, i64 %61
  %65 = load float, ptr %64, align 4, !tbaa !4
  %66 = fsub float %65, %42
  %67 = fmul float %45, %66
  %68 = getelementptr inbounds nuw float, ptr %0, i64 %61
  %69 = load float, ptr %68, align 4, !tbaa !4
  %70 = fsub float %69, %37
  %71 = fdiv float %67, %70
  br label %74

72:                                               ; preds = %60
  %73 = fsub float %44, %42
  br label %74

74:                                               ; preds = %72, %63
  %.043 = phi float [ %71, %63 ], [ %73, %72 ]
  %75 = fsub float %4, %37
  %76 = fdiv float %75, %45
  %77 = fmul float %76, %76
  %78 = fmul float %76, %77
  %79 = fmul float %78, 2.000000e+00
  %80 = fmul float %77, 3.000000e+00
  %81 = fsub float %79, %80
  %82 = fadd float %81, 1.000000e+00
  %83 = fmul float %42, %82
  %84 = fsub float %80, %79
  %85 = fmul float %44, %84
  %86 = fadd float %85, %83
  %87 = fmul float %77, 2.000000e+00
  %88 = fsub float %78, %87
  %89 = fadd float %76, %88
  %90 = fmul float %89, %.042
  %91 = fadd float %86, %90
  %92 = fsub float %78, %77
  %93 = fmul float %92, %.043
  %94 = fadd float %91, %93
  br label %95

95:                                               ; preds = %10, %13, %74
  %.0 = phi float [ %94, %74 ], [ 0.000000e+00, %13 ], [ 0.000000e+00, %10 ]
  ret float %.0
}